target datalayout = "e-m:e-p270:32:32-p271:32:32-p272:64:64-i64:64-i128:128-f80:128-n8:16:32:64-S128"
target triple = "x86_64-pc-linux-gnu"

%struct.xcgroup_t = type { ptr, ptr, ptr, i32, i32, i32 }
%struct.slurm_conf_t = type { i64, ptr, i16, ptr, ptr, ptr, ptr, ptr, i16, ptr, ptr, ptr, ptr, ptr, ptr, ptr, i16, ptr, ptr, ptr, ptr, i16, ptr, ptr, ptr, i64, ptr, ptr, ptr, ptr, i16, ptr, ptr, i16, i32, ptr, i32, ptr, i32, i32, ptr, ptr, i64, i64, ptr, i16, i16, ptr, i32, i32, ptr, i32, ptr, i32, i16, i16, i16, ptr, i16, i16, ptr, ptr, i32, i16, i16, ptr, i32, i16, ptr, ptr, ptr, ptr, i16, ptr, ptr, ptr, ptr, i32, ptr, ptr, ptr, ptr, i16, i16, ptr, i32, i32, i32, i16, i16, ptr, ptr, i16, ptr, ptr, i32, i32, i32, i32, i32, i64, i32, i32, i16, ptr, ptr, i32, ptr, ptr, ptr, i16, i32, ptr, ptr, i16, ptr, ptr, i32, i16, ptr, ptr, ptr, ptr, i32, i32, i16, i16, i32, ptr, i16, ptr, i32, i32, i32, i32, i32, i32, ptr, i16, ptr, ptr, i32, i16, ptr, i32, i16, i16, ptr, ptr, ptr, i16, ptr, ptr, ptr, ptr, i16, i16, ptr, i16, ptr, i16, ptr, i16, ptr, i16, ptr, ptr, ptr, ptr, i16, ptr, ptr, ptr, i32, ptr, i32, ptr, ptr, i16, ptr, ptr, i32, i16, ptr, ptr, i16, i16, ptr, i16, ptr, ptr, ptr, i32, ptr, i16, i16, ptr, ptr, ptr, ptr, ptr, ptr, ptr, ptr, i16, i32, i16, ptr, ptr, ptr, ptr, i32, ptr, ptr, ptr, i16, ptr, ptr, ptr, i16, ptr, i16, ptr, i16, i16, ptr }
%struct.task_cg_info_t = type { %struct.xcgroup_t, i32 }

@plugin_type = dso_local constant [10 x i8] c"cgroup/v1\00", align 1
@slurm_conf = external global %struct.slurm_conf_t, align 8
@.str.90 = private unnamed_addr constant [51 x i8] c"%s: %s: CGROUP: taskid: %d, failed to delete %s %m\00", align 1
@__func__._rmdir_task = private unnamed_addr constant [12 x i8] c"_rmdir_task\00", align 1

; Function Attrs: nounwind uwtable
define internal i32 @_rmdir_task(ptr noundef %0, ptr noundef %1) #0 {
  %3 = alloca ptr, align 8
  %4 = alloca ptr, align 8
  %5 = alloca ptr, align 8
  store ptr %0, ptr %3, align 8
  store ptr %1, ptr %4, align 8
  call void @llvm.lifetime.start.p0(i64 8, ptr %5) #7
  %6 = load ptr, ptr %3, align 8
  store ptr %6, ptr %5, align 8
  %7 = load ptr, ptr %5, align 8
  %8 = getelementptr inbounds nuw %struct.task_cg_info_t, ptr %7, i32 0, i32 0
  %9 = call i32 @common_cgroup_delete(ptr noundef %8)
  %10 = icmp ne i32 %9, 0
  br i1 %10, label %11, label %34

11:                                               ; preds = %2
  br label %12

12:                                               ; preds = %11
  %13 = load i64, ptr getelementptr inbounds nuw (%struct.slurm_conf_t, ptr @slurm_conf, i32 0, i32 42), align 8
  %14 = and i64 %13, 36028797018963968
  %15 = icmp ne i64 %14, 0
  br i1 %15, label %16, label %31

16:                                               ; preds = %12
  br label %17

17:                                               ; preds = %16
  %18 = call i32 @get_log_level()
  %19 = icmp sge i32 %18, 4
  br i1 %19, label %20, label %28

20:                                               ; preds = %17
  %21 = load ptr, ptr %5, align 8
  %22 = getelementptr inbounds nuw %struct.task_cg_info_t, ptr %21, i32 0, i32 1
  %23 = load i32, ptr %22, align 8
  %24 = load ptr, ptr %5, align 8
  %25 = getelementptr inbounds nuw %struct.task_cg_info_t, ptr %24, i32 0, i32 0
  %26 = getelementptr inbounds nuw %struct.xcgroup_t, ptr %25, i32 0, i32 2
  %27 = load ptr, ptr %26, align 8
  call void (i32, ptr, ...) @log_var(i32 noundef 4, ptr noundef @.str.90, ptr noundef @plugin_type, ptr noundef @__func__._rmdir_task, i32 noundef %23, ptr noundef %27)
  br label %28

28:                                               ; preds = %20, %17
  br label %29

29:                                               ; preds = %28
  br label %30

30:                                               ; preds = %29
  br label %31

31:                                               ; preds = %30, %12
  br label %32

32:                                               ; preds = %31
  br label %33

33:                                               ; preds = %32
  br label %34

34:                                               ; preds = %33, %2
  call void @llvm.lifetime.end.p0(i64 8, ptr %5) #7
  ret i32 0
}