; Function Attrs: nounwind uwtable
define internal noundef i32 @_rmdir_task(ptr noundef %0, ptr readnone captures(none) %1) #0 {
  %3 = tail call i32 @common_cgroup_delete(ptr noundef %0) #11
  %.not = icmp eq i32 %3, 0
  br i1 %.not, label %15, label %4

4:                                                ; preds = %2
  %5 = load i64, ptr getelementptr inbounds nuw (i8, ptr @slurm_conf, i64 320), align 8
  %6 = and i64 %5, 36028797018963968
  %.not4 = icmp eq i64 %6, 0
  br i1 %.not4, label %15, label %7

7:                                                ; preds = %4
  %8 = tail call i32 @get_log_level() #11
  %9 = icmp sgt i32 %8, 3
  br i1 %9, label %10, label %15

10:                                               ; preds = %7
  %11 = getelementptr inbounds nuw i8, ptr %0, i64 40
  %12 = load i32, ptr %11, align 8
  %13 = getelementptr inbounds nuw i8, ptr %0, i64 16
  %14 = load ptr, ptr %13, align 8
  tail call void (i32, ptr, ...) @log_var(i32 noundef 4, ptr noundef nonnull @.str.90, ptr noundef nonnull @plugin_type, ptr noundef nonnull @__func__._rmdir_task, i32 noundef %12, ptr noundef %14) #11
  br label %15

15:                                               ; preds = %4, %10, %7, %2
  ret i32 0
}